target datalayout = "e-m:e-p270:32:32-p271:32:32-p272:64:64-i64:64-i128:128-f80:128-n8:16:32:64-S128"
target triple = "x86_64-pc-linux-gnu"

%struct.strvec = type { ptr, i64, i64 }
%struct.strbuf = type { i64, i64, ptr }
%struct.stash_info = type { %struct.object_id, %struct.object_id, %struct.object_id, %struct.object_id, %struct.object_id, %struct.object_id, %struct.object_id, %struct.object_id, %struct.strbuf, i32, i32 }
%struct.object_id = type { [32 x i8], i32 }
%struct.option = type { i32, i32, ptr, ptr, ptr, ptr, i32, ptr, i64, ptr, i64, ptr }
%struct.child_process = type { %struct.strvec, %struct.strvec, i32, i32, i64, ptr, ptr, i32, i32, i32, ptr, i16, ptr }

@stderr = external global ptr, align 8
@.str.25 = private unnamed_addr constant [1 x i8] zeroinitializer, align 1
@git_gettext_enabled = external global i32, align 4
@git_stash_branch_usage = internal constant [2 x ptr] [ptr @.str.72, ptr null], align 16
@.str.69 = private unnamed_addr constant [25 x i8] c"No branch name specified\00", align 1
@.str.70 = private unnamed_addr constant [9 x i8] c"checkout\00", align 1
@.str.71 = private unnamed_addr constant [3 x i8] c"-b\00", align 1

; Function Attrs: nounwind uwtable
define internal void @free_stash_info(ptr noundef %0) #0 {
  %2 = alloca ptr, align 8
  store ptr %0, ptr %2, align 8, !tbaa !109
  %3 = load ptr, ptr %2, align 8, !tbaa !109
  %4 = getelementptr inbounds nuw %struct.stash_info, ptr %3, i32 0, i32 8
  call void @strbuf_release(ptr noundef %4)
  ret void
}

; Function Attrs: inlinehint nounwind uwtable
define internal ptr @_(ptr noundef %0) #5 {
  %2 = alloca ptr, align 8
  %3 = alloca ptr, align 8
  store ptr %0, ptr %3, align 8, !tbaa !11
  %4 = load ptr, ptr %3, align 8, !tbaa !11
  %5 = load i8, ptr %4, align 1, !tbaa !58
  %6 = icmp ne i8 %5, 0
  br i1 %6, label %8, label %7

7:                                                ; preds = %1
  store ptr @.str.25, ptr %2, align 8
  br label %16

8:                                                ; preds = %1
  %9 = load i32, ptr @git_gettext_enabled, align 4, !tbaa !4
  %10 = icmp ne i32 %9, 0
  br i1 %10, label %13, label %11

11:                                               ; preds = %8
  %12 = load ptr, ptr %3, align 8, !tbaa !11
  store ptr %12, ptr %2, align 8
  br label %16

13:                                               ; preds = %8
  %14 = load ptr, ptr %3, align 8, !tbaa !11
  %15 = call ptr @dcgettext(ptr noundef null, ptr noundef %14, i32 noundef 5) #9
  store ptr %15, ptr %2, align 8
  br label %16

16:                                               ; preds = %13, %11, %7
  %17 = load ptr, ptr %2, align 8
  ret ptr %17
}

; Function Attrs: nounwind uwtable
define internal i32 @branch_stash(i32 noundef %0, ptr noundef %1, ptr noundef %2, ptr noundef %3) #0 {
  %5 = alloca i32, align 4
  %6 = alloca i32, align 4
  %7 = alloca ptr, align 8
  %8 = alloca ptr, align 8
  %9 = alloca ptr, align 8
  %10 = alloca i32, align 4
  %11 = alloca ptr, align 8
  %12 = alloca %struct.stash_info, align 8
  %13 = alloca %struct.child_process, align 8
  %14 = alloca [1 x %struct.option], align 16
  %15 = alloca i32, align 4
  store i32 %0, ptr %6, align 4, !tbaa !4
  store ptr %1, ptr %7, align 8, !tbaa !8
  store ptr %2, ptr %8, align 8, !tbaa !11
  store ptr %3, ptr %9, align 8, !tbaa !13
  call void @llvm.lifetime.start.p0(i64 4, ptr %10) #9
  store i32 -1, ptr %10, align 4, !tbaa !4
  call void @llvm.lifetime.start.p0(i64 8, ptr %11) #9
  store ptr null, ptr %11, align 8, !tbaa !11
  call void @llvm.lifetime.start.p0(i64 320, ptr %12) #9
  call void @llvm.memcpy.p0.p0.i64(ptr align 8 %12, ptr align 8 @__const.branch_stash.info, i64 320, i1 false)
  call void @llvm.lifetime.start.p0(i64 120, ptr %13) #9
  call void @llvm.memcpy.p0.p0.i64(ptr align 8 %13, ptr align 8 @__const.branch_stash.cp, i64 120, i1 false)
  call void @llvm.lifetime.start.p0(i64 88, ptr %14) #9
  call void @llvm.memset.p0.i64(ptr align 16 %14, i8 0, i64 88, i1 false)
  %16 = load i32, ptr %6, align 4, !tbaa !4
  %17 = load ptr, ptr %7, align 8, !tbaa !8
  %18 = load ptr, ptr %8, align 8, !tbaa !11
  %19 = getelementptr inbounds [1 x %struct.option], ptr %14, i64 0, i64 0
  %20 = call i32 @parse_options(i32 noundef %16, ptr noundef %17, ptr noundef %18, ptr noundef %19, ptr noundef @git_stash_branch_usage, i32 noundef 0)
  store i32 %20, ptr %6, align 4, !tbaa !4
  %21 = load i32, ptr %6, align 4, !tbaa !4
  %22 = icmp ne i32 %21, 0
  br i1 %22, label %27, label %23

23:                                               ; preds = %4
  %24 = load ptr, ptr @stderr, align 8, !tbaa !52
  %25 = call ptr @_(ptr noundef @.str.69)
  %26 = call i32 (ptr, ptr, ...) @fprintf_ln(ptr noundef %24, ptr noundef %25)
  store i32 -1, ptr %5, align 4
  store i32 1, ptr %15, align 4
  br label %69

27:                                               ; preds = %4
  %28 = load ptr, ptr %7, align 8, !tbaa !8
  %29 = getelementptr inbounds ptr, ptr %28, i64 0
  %30 = load ptr, ptr %29, align 8, !tbaa !11
  store ptr %30, ptr %11, align 8, !tbaa !11
  %31 = load i32, ptr %6, align 4, !tbaa !4
  %32 = sub nsw i32 %31, 1
  %33 = load ptr, ptr %7, align 8, !tbaa !8
  %34 = getelementptr inbounds ptr, ptr %33, i64 1
  %35 = call i32 @get_stash_info(ptr noundef %12, i32 noundef %32, ptr noundef %34)
  %36 = icmp ne i32 %35, 0
  br i1 %36, label %37, label %38

37:                                               ; preds = %27
  br label %67

38:                                               ; preds = %27
  %39 = getelementptr inbounds nuw %struct.child_process, ptr %13, i32 0, i32 11
  %40 = load i16, ptr %39, align 8
  %41 = and i16 %40, -9
  %42 = or i16 %41, 8
  store i16 %42, ptr %39, align 8
  %43 = getelementptr inbounds nuw %struct.child_process, ptr %13, i32 0, i32 0
  call void (ptr, ...) @strvec_pushl(ptr noundef %43, ptr noundef @.str.70, ptr noundef @.str.71, ptr noundef null)
  %44 = getelementptr inbounds nuw %struct.child_process, ptr %13, i32 0, i32 0
  %45 = load ptr, ptr %11, align 8, !tbaa !11
  %46 = call ptr @strvec_push(ptr noundef %44, ptr noundef %45)
  %47 = getelementptr inbounds nuw %struct.child_process, ptr %13, i32 0, i32 0
  %48 = getelementptr inbounds nuw %struct.stash_info, ptr %12, i32 0, i32 1
  %49 = call ptr @oid_to_hex(ptr noundef %48)
  %50 = call ptr @strvec_push(ptr noundef %47, ptr noundef %49)
  %51 = call i32 @run_command(ptr noundef %13)
  store i32 %51, ptr %10, align 4, !tbaa !4
  %52 = load i32, ptr %10, align 4, !tbaa !4
  %53 = icmp ne i32 %52, 0
  br i1 %53, label %57, label %54

54:                                               ; preds = %38
  %55 = load ptr, ptr %8, align 8, !tbaa !11
  %56 = call i32 @do_apply_stash(ptr noundef %55, ptr noundef %12, i32 noundef 1, i32 noundef 0)
  store i32 %56, ptr %10, align 4, !tbaa !4
  br label %57

57:                                               ; preds = %54, %38
  %58 = load i32, ptr %10, align 4, !tbaa !4
  %59 = icmp ne i32 %58, 0
  br i1 %59, label %66, label %60

60:                                               ; preds = %57
  %61 = getelementptr inbounds nuw %struct.stash_info, ptr %12, i32 0, i32 9
  %62 = load i32, ptr %61, align 8, !tbaa !54
  %63 = icmp ne i32 %62, 0
  br i1 %63, label %64, label %66

64:                                               ; preds = %60
  %65 = call i32 @do_drop_stash(ptr noundef %12, i32 noundef 0)
  store i32 %65, ptr %10, align 4, !tbaa !4
  br label %66

66:                                               ; preds = %64, %60, %57
  br label %67

67:                                               ; preds = %66, %37
  call void @free_stash_info(ptr noundef %12)
  %68 = load i32, ptr %10, align 4, !tbaa !4
  store i32 %68, ptr %5, align 4
  store i32 1, ptr %15, align 4
  br label %69

69:                                               ; preds = %67, %23
  call void @llvm.lifetime.end.p0(i64 88, ptr %14) #9
  call void @llvm.lifetime.end.p0(i64 120, ptr %13) #9
  call void @llvm.lifetime.end.p0(i64 320, ptr %12) #9
  call void @llvm.lifetime.end.p0(i64 8, ptr %11) #9
  call void @llvm.lifetime.end.p0(i64 4, ptr %10) #9
  %70 = load i32, ptr %5, align 4
  ret i32 %70
}