; Function Attrs: nounwind uwtable
define internal i32 @branch_stash(i32 noundef %0, ptr noundef %1, ptr noundef %2, ptr readnone captures(none) %3) #0 {
  %5 = alloca %struct.stash_info, align 8
  %6 = alloca %struct.child_process, align 8
  %7 = alloca [1 x %struct.option], align 16
  call void @llvm.lifetime.start.p0(i64 320, ptr nonnull %5) #15
  call void @llvm.memcpy.p0.p0.i64(ptr noundef nonnull align 8 dereferenceable(320) %5, ptr noundef nonnull align 8 dereferenceable(320) @__const.do_push_stash.info, i64 320, i1 false)
  call void @llvm.lifetime.start.p0(i64 120, ptr nonnull %6) #15
  call void @llvm.memcpy.p0.p0.i64(ptr noundef nonnull align 8 dereferenceable(120) %6, ptr noundef nonnull align 8 dereferenceable(120) @__const.do_push_stash.cp.159, i64 120, i1 false)
  call void @llvm.lifetime.start.p0(i64 88, ptr nonnull %7) #15
  call void @llvm.memset.p0.i64(ptr noundef nonnull align 16 dereferenceable(88) %7, i8 0, i64 88, i1 false)
  %8 = call i32 @parse_options(i32 noundef %0, ptr noundef %1, ptr noundef %2, ptr noundef nonnull %7, ptr noundef nonnull @git_stash_branch_usage, i32 noundef 0) #15
  %.not = icmp eq i32 %8, 0
  br i1 %.not, label %9, label %15

9:                                                ; preds = %4
  %10 = load ptr, ptr @stderr, align 8, !tbaa !52
  %11 = load i32, ptr @git_gettext_enabled, align 4, !tbaa !42
  %.not4.i = icmp eq i32 %11, 0
  br i1 %.not4.i, label %_.exit, label %12

12:                                               ; preds = %9
  %13 = call ptr @dcgettext(ptr noundef null, ptr noundef nonnull @.str.69, i32 noundef 5) #15
  br label %_.exit

_.exit:                                           ; preds = %9, %12
  %.0.i = phi ptr [ %13, %12 ], [ @.str.69, %9 ]
  %14 = call i32 (ptr, ptr, ...) @fprintf_ln(ptr noundef %10, ptr noundef %.0.i) #15
  br label %36

15:                                               ; preds = %4
  %16 = load ptr, ptr %1, align 8, !tbaa !54
  %17 = add nsw i32 %8, -1
  %18 = getelementptr inbounds nuw i8, ptr %1, i64 8
  %19 = call fastcc i32 @get_stash_info(ptr noundef %5, i32 noundef %17, ptr noundef nonnull %18)
  %.not17 = icmp eq i32 %19, 0
  br i1 %.not17, label %20, label %.thread

20:                                               ; preds = %15
  %21 = getelementptr inbounds nuw i8, ptr %6, i64 104
  store i16 8, ptr %21, align 8
  call void (ptr, ...) @strvec_pushl(ptr noundef nonnull %6, ptr noundef nonnull @.str.70, ptr noundef nonnull @.str.71, ptr noundef null) #15
  %22 = call ptr @strvec_push(ptr noundef nonnull %6, ptr noundef %16) #15
  %23 = getelementptr inbounds nuw i8, ptr %5, i64 36
  %24 = call ptr @oid_to_hex(ptr noundef nonnull %23) #15
  %25 = call ptr @strvec_push(ptr noundef nonnull %6, ptr noundef %24) #15
  %26 = call i32 @run_command(ptr noundef nonnull %6) #15
  %.not18 = icmp eq i32 %26, 0
  br i1 %.not18, label %27, label %.thread

27:                                               ; preds = %20
  %28 = call fastcc i32 @do_apply_stash(ptr noundef %2, ptr noundef %5, i32 noundef 1, i32 noundef 0)
  %29 = icmp eq i32 %28, 0
  %30 = getelementptr inbounds nuw i8, ptr %5, i64 312
  %31 = load i32, ptr %30, align 8
  %32 = icmp ne i32 %31, 0
  %or.cond = select i1 %29, i1 %32, i1 false
  br i1 %or.cond, label %33, label %.thread

33:                                               ; preds = %27
  %34 = call fastcc i32 @do_drop_stash(ptr noundef %5, i32 noundef 0)
  br label %.thread

.thread:                                          ; preds = %20, %27, %33, %15
  %.0 = phi i32 [ -1, %15 ], [ %34, %33 ], [ %28, %27 ], [ %26, %20 ]
  %35 = getelementptr inbounds nuw i8, ptr %5, i64 288
  call void @strbuf_release(ptr noundef nonnull %35) #15
  br label %36

36:                                               ; preds = %.thread, %_.exit
  %.014 = phi i32 [ %.0, %.thread ], [ -1, %_.exit ]
  call void @llvm.lifetime.end.p0(i64 88, ptr nonnull %7) #15
  call void @llvm.lifetime.end.p0(i64 120, ptr nonnull %6) #15
  call void @llvm.lifetime.end.p0(i64 320, ptr nonnull %5) #15
  ret i32 %.014
}